target datalayout = "e-m:e-p270:32:32-p271:32:32-p272:64:64-i64:64-i128:128-f80:128-n8:16:32:64-S128"
target triple = "x86_64-pc-linux-gnu"

; Function Attrs: mustprogress nounwind uwtable
define internal noundef i32 @_ZL12is_leap_yearl(i64 noundef %0) #4 {
  %2 = alloca i64, align 8
  store i64 %0, ptr %2, align 8, !tbaa !88
  %3 = load i64, ptr %2, align 8, !tbaa !88
  %4 = srem i64 %3, 4
  %5 = icmp eq i64 %4, 0
  br i1 %5, label %6, label %10

6:                                                ; preds = %1
  %7 = load i64, ptr %2, align 8, !tbaa !88
  %8 = srem i64 %7, 100
  %9 = icmp ne i64 %8, 0
  br i1 %9, label %14, label %10

10:                                               ; preds = %6, %1
  %11 = load i64, ptr %2, align 8, !tbaa !88
  %12 = srem i64 %11, 400
  %13 = icmp eq i64 %12, 0
  br label %14

14:                                               ; preds = %10, %6
  %15 = phi i1 [ true, %6 ], [ %13, %10 ]
  %16 = zext i1 %15 to i32
  ret i32 %16
}

; Function Attrs: mustprogress uwtable
define internal noundef i32 @_ZL12days_in_yearl(i64 noundef %0) #0 {
  %2 = alloca i64, align 8
  store i64 %0, ptr %2, align 8, !tbaa !88
  %3 = load i64, ptr %2, align 8, !tbaa !88
  %4 = call noundef i32 @_ZL12is_leap_yearl(i64 noundef %3)
  %5 = icmp ne i32 %4, 0
  %6 = select i1 %5, i32 366, i32 365
  ret i32 %6
}

; Function Attrs: mustprogress uwtable
define internal noundef double @_ZL18decimalyear_to_mjdd(double noundef %0) #0 {
  %2 = alloca double, align 8
  %3 = alloca double, align 8
  %4 = alloca i64, align 8
  %5 = alloca double, align 8
  %6 = alloca double, align 8
  %7 = alloca i32, align 4
  store double %0, ptr %3, align 8, !tbaa !62
  call void @llvm.lifetime.start.p0(i64 8, ptr %4) #10
  call void @llvm.lifetime.start.p0(i64 8, ptr %5) #10
  call void @llvm.lifetime.start.p0(i64 8, ptr %6) #10
  %8 = load double, ptr %3, align 8, !tbaa !62
  %9 = fcmp oge double %8, -1.000000e+04
  br i1 %9, label %10, label %13

10:                                               ; preds = %1
  %11 = load double, ptr %3, align 8, !tbaa !62
  %12 = fcmp ole double %11, 1.000000e+04
  br i1 %12, label %14, label %13

13:                                               ; preds = %10, %1
  store double 0.000000e+00, ptr %2, align 8
  store i32 1, ptr %7, align 4
  br label %52

14:                                               ; preds = %10
  %15 = load double, ptr %3, align 8, !tbaa !62
  %16 = call double @llvm.floor.f64(double %15)
  %17 = call i64 @lround(double noundef %16) #10, !tbaa !43
  store i64 %17, ptr %4, align 8, !tbaa !88
  %18 = load double, ptr %3, align 8, !tbaa !62
  %19 = load i64, ptr %4, align 8, !tbaa !88
  %20 = sitofp i64 %19 to double
  %21 = fsub double %18, %20
  store double %21, ptr %5, align 8, !tbaa !62
  %22 = load i64, ptr %4, align 8, !tbaa !88
  %23 = sub nsw i64 %22, 1859
  %24 = mul nsw i64 %23, 365
  %25 = add nsw i64 %24, 14
  %26 = add nsw i64 %25, 31
  %27 = sitofp i64 %26 to double
  store double %27, ptr %6, align 8, !tbaa !62
  %28 = load double, ptr %5, align 8, !tbaa !62
  %29 = load i64, ptr %4, align 8, !tbaa !88
  %30 = call noundef i32 @_ZL12days_in_yearl(i64 noundef %29)
  %31 = sitofp i32 %30 to double
  %32 = load double, ptr %6, align 8, !tbaa !62
  %33 = call double @llvm.fmuladd.f64(double %28, double %31, double %32)
  store double %33, ptr %6, align 8, !tbaa !62
  %34 = load i64, ptr %4, align 8, !tbaa !88
  %35 = add nsw i64 %34, -1
  store i64 %35, ptr %4, align 8, !tbaa !88
  br label %36

36:                                               ; preds = %47, %14
  %37 = load i64, ptr %4, align 8, !tbaa !88
  %38 = icmp sgt i64 %37, 1858
  br i1 %38, label %39, label %50

39:                                               ; preds = %36
  %40 = load i64, ptr %4, align 8, !tbaa !88
  %41 = call noundef i32 @_ZL12is_leap_yearl(i64 noundef %40)
  %42 = icmp ne i32 %41, 0
  br i1 %42, label %43, label %46

43:                                               ; preds = %39
  %44 = load double, ptr %6, align 8, !tbaa !62
  %45 = fadd double %44, 1.000000e+00
  store double %45, ptr %6, align 8, !tbaa !62
  br label %46

46:                                               ; preds = %43, %39
  br label %47

47:                                               ; preds = %46
  %48 = load i64, ptr %4, align 8, !tbaa !88
  %49 = add nsw i64 %48, -1
  store i64 %49, ptr %4, align 8, !tbaa !88
  br label %36, !llvm.loop !89

50:                                               ; preds = %36
  %51 = load double, ptr %6, align 8, !tbaa !62
  store double %51, ptr %2, align 8
  store i32 1, ptr %7, align 4
  br label %52

52:                                               ; preds = %50, %13
  call void @llvm.lifetime.end.p0(i64 8, ptr %6) #10
  call void @llvm.lifetime.end.p0(i64 8, ptr %5) #10
  call void @llvm.lifetime.end.p0(i64 8, ptr %4) #10
  %53 = load double, ptr %2, align 8
  ret double %53
}