; Function Attrs: mustprogress nounwind uwtable
define internal noundef double @_ZL18decimalyear_to_mjdd(double noundef %0) #7 {
  %2 = tail call double @llvm.fabs.f64(double %0)
  %or.cond = fcmp ugt double %2, 1.000000e+04
  br i1 %or.cond, label %.loopexit, label %3

3:                                                ; preds = %1
  %4 = tail call double @llvm.floor.f64(double %0)
  %5 = tail call i64 @lround(double noundef %4) #13, !tbaa !78
  %.fr = freeze i64 %5
  %6 = sitofp i64 %.fr to double
  %7 = fsub double %0, %6
  %8 = mul i64 %.fr, 365
  %9 = add i64 %8, -678490
  %10 = sitofp i64 %9 to double
  %11 = and i64 %.fr, 3
  %12 = icmp ne i64 %11, 0
  %13 = srem i64 %.fr, 100
  %.not.i.i = icmp eq i64 %13, 0
  %or.cond.i.i = or i1 %12, %.not.i.i
  br i1 %or.cond.i.i, label %_ZL12is_leap_yearl.exit.i, label %_ZL12days_in_yearl.exit

_ZL12is_leap_yearl.exit.i:                        ; preds = %3
  %14 = srem i64 %.fr, 400
  %.not.i = icmp eq i64 %14, 0
  %15 = select i1 %.not.i, double 3.660000e+02, double 3.650000e+02
  br label %_ZL12days_in_yearl.exit

_ZL12days_in_yearl.exit:                          ; preds = %3, %_ZL12is_leap_yearl.exit.i
  %16 = phi double [ 3.660000e+02, %3 ], [ %15, %_ZL12is_leap_yearl.exit.i ]
  %17 = tail call double @llvm.fmuladd.f64(double %7, double %16, double %10)
  %18 = icmp sgt i64 %.fr, 1859
  br i1 %18, label %.lr.ph, label %.loopexit

.lr.ph:                                           ; preds = %_ZL12days_in_yearl.exit, %26
  %.01724.in = phi i64 [ %.01724, %26 ], [ %.fr, %_ZL12days_in_yearl.exit ]
  %.023 = phi double [ %27, %26 ], [ %17, %_ZL12days_in_yearl.exit ]
  %.01724 = add nsw i64 %.01724.in, -1
  %19 = and i64 %.01724, 3
  %20 = icmp ne i64 %19, 0
  %21 = urem i64 %.01724, 100
  %.not.i19 = icmp eq i64 %21, 0
  %or.cond.i = or i1 %20, %.not.i19
  br i1 %or.cond.i, label %_ZL12is_leap_yearl.exit, label %_ZL12is_leap_yearl.exit.thread

_ZL12is_leap_yearl.exit.thread:                   ; preds = %.lr.ph
  %22 = fadd double %.023, 1.000000e+00
  br label %26

_ZL12is_leap_yearl.exit:                          ; preds = %.lr.ph
  %23 = urem i64 %.01724, 400
  %.not = icmp eq i64 %23, 0
  %24 = fadd double %.023, 1.000000e+00
  br i1 %.not, label %26, label %25

25:                                               ; preds = %_ZL12is_leap_yearl.exit
  br label %26

26:                                               ; preds = %_ZL12is_leap_yearl.exit.thread, %_ZL12is_leap_yearl.exit, %25
  %27 = phi double [ %.023, %25 ], [ %24, %_ZL12is_leap_yearl.exit ], [ %22, %_ZL12is_leap_yearl.exit.thread ]
  %28 = icmp samesign ugt i64 %.01724.in, 1860
  br i1 %28, label %.lr.ph, label %.loopexit, !llvm.loop !79

.loopexit:                                        ; preds = %26, %_ZL12days_in_yearl.exit, %1
  %.016 = phi double [ 0.000000e+00, %1 ], [ %17, %_ZL12days_in_yearl.exit ], [ %27, %26 ]
  ret double %.016
}